(dp1
V81         fistvals = np.flipud(y)                                                                                   | 60         raise TypeError("window_size size must be a positive odd number")
p2
I37
sV-v
p3
I63
sVnp.sqrt(2)
p4
I127
s.