(dp1
Vlen(A)
p2
I49
sVA = (A, 3)
p3
I228
sVA = np.ones((10, 5))
p4
I174
sVfistvals = np.flipud(y)                                                                                               | 60         raise TypeError("window_size size must be a positive odd number")
p5
I38
s.