(dp1
Vlastvales = np.flipud(y)                                                                                              | 61     if window_size < order + 2:
p2
I39
sVmin(points, key=int)
p3
I252
sVindex[:][:]
p4
I215
s.